#include <math.h>
#include <stdio.h>
#include <stdlib.h>
#include <string.h>

int main(int argc, char* argv[])
{
	int n,i,j,len;
	char jianji[1000][300];
	scanf("%d",&n);
	for(i=0;i<n;i++)
	{
		scanf("%s",jianji[i]);
	}
	for (i=0;i<n;i++)
	{
		len=strlen(jianji[i]);
		for (j=0;j<len;j++)
		{
			if (jianji[i][j]=='A')
			{
				jianji[i][j]='T';
			}
			else if (jianji[i][j]=='T')
			{
				jianji[i][j]='A';
			}
			else if (jianji[i][j]=='C')
			{
				jianji[i][j]='G';
			}
			else if (jianji[i][j]=='G')
			{
				jianji[i][j]='C';
			}
		}
	
	}
	for (i=0;i<n;i++)
	{
		printf("%s\n",jianji[i]);
	}
	return 0;
}
