; ModuleID = '33/1919.c'
source_filename = "33/1919.c"
target datalayout = "e-m:e-p270:32:32-p271:32:32-p272:64:64-i64:64-f80:128-n8:16:32:64-S128"
target triple = "x86_64-pc-linux-gnu"

@.str = private unnamed_addr constant [3 x i8] c"%d\00", align 1
@.str.1 = private unnamed_addr constant [3 x i8] c"%s\00", align 1
@.str.2 = private unnamed_addr constant [4 x i8] c"%s\0A\00", align 1

; Function Attrs: noinline nounwind uwtable
define dso_local i32 @main(i32 %0, i8** %1) #0 {
  %3 = alloca i32, align 4
  %4 = alloca i32, align 4
  %5 = alloca i8**, align 8
  %6 = alloca i32, align 4
  %7 = alloca i32, align 4
  %8 = alloca i32, align 4
  %9 = alloca i32, align 4
  %10 = alloca [1000 x [300 x i8]], align 16
  store i32 0, i32* %3, align 4
  store i32 %0, i32* %4, align 4
  store i8** %1, i8*** %5, align 8
  %11 = call i32 (i8*, ...) @__isoc99_scanf(i8* getelementptr inbounds ([3 x i8], [3 x i8]* @.str, i64 0, i64 0), i32* %6)
  store i32 0, i32* %7, align 4
  br label %12

12:                                               ; preds = %22, %2
  %13 = load i32, i32* %7, align 4
  %14 = load i32, i32* %6, align 4
  %15 = icmp slt i32 %13, %14
  br i1 %15, label %16, label %25

16:                                               ; preds = %12
  %17 = load i32, i32* %7, align 4
  %18 = sext i32 %17 to i64
  %19 = getelementptr inbounds [1000 x [300 x i8]], [1000 x [300 x i8]]* %10, i64 0, i64 %18
  %20 = getelementptr inbounds [300 x i8], [300 x i8]* %19, i64 0, i64 0
  %21 = call i32 (i8*, ...) @__isoc99_scanf(i8* getelementptr inbounds ([3 x i8], [3 x i8]* @.str.1, i64 0, i64 0), i8* %20)
  br label %22

22:                                               ; preds = %16
  %23 = load i32, i32* %7, align 4
  %24 = add nsw i32 %23, 1
  store i32 %24, i32* %7, align 4
  br label %12

25:                                               ; preds = %12
  store i32 0, i32* %7, align 4
  br label %26

26:                                               ; preds = %117, %25
  %27 = load i32, i32* %7, align 4
  %28 = load i32, i32* %6, align 4
  %29 = icmp slt i32 %27, %28
  br i1 %29, label %30, label %120

30:                                               ; preds = %26
  %31 = load i32, i32* %7, align 4
  %32 = sext i32 %31 to i64
  %33 = getelementptr inbounds [1000 x [300 x i8]], [1000 x [300 x i8]]* %10, i64 0, i64 %32
  %34 = getelementptr inbounds [300 x i8], [300 x i8]* %33, i64 0, i64 0
  %35 = call i64 @strlen(i8* %34) #3
  %36 = trunc i64 %35 to i32
  store i32 %36, i32* %9, align 4
  store i32 0, i32* %8, align 4
  br label %37

37:                                               ; preds = %113, %30
  %38 = load i32, i32* %8, align 4
  %39 = load i32, i32* %9, align 4
  %40 = icmp slt i32 %38, %39
  br i1 %40, label %41, label %116

41:                                               ; preds = %37
  %42 = load i32, i32* %7, align 4
  %43 = sext i32 %42 to i64
  %44 = getelementptr inbounds [1000 x [300 x i8]], [1000 x [300 x i8]]* %10, i64 0, i64 %43
  %45 = load i32, i32* %8, align 4
  %46 = sext i32 %45 to i64
  %47 = getelementptr inbounds [300 x i8], [300 x i8]* %44, i64 0, i64 %46
  %48 = load i8, i8* %47, align 1
  %49 = sext i8 %48 to i32
  %50 = icmp eq i32 %49, 65
  br i1 %50, label %51, label %58

51:                                               ; preds = %41
  %52 = load i32, i32* %7, align 4
  %53 = sext i32 %52 to i64
  %54 = getelementptr inbounds [1000 x [300 x i8]], [1000 x [300 x i8]]* %10, i64 0, i64 %53
  %55 = load i32, i32* %8, align 4
  %56 = sext i32 %55 to i64
  %57 = getelementptr inbounds [300 x i8], [300 x i8]* %54, i64 0, i64 %56
  store i8 84, i8* %57, align 1
  br label %112

58:                                               ; preds = %41
  %59 = load i32, i32* %7, align 4
  %60 = sext i32 %59 to i64
  %61 = getelementptr inbounds [1000 x [300 x i8]], [1000 x [300 x i8]]* %10, i64 0, i64 %60
  %62 = load i32, i32* %8, align 4
  %63 = sext i32 %62 to i64
  %64 = getelementptr inbounds [300 x i8], [300 x i8]* %61, i64 0, i64 %63
  %65 = load i8, i8* %64, align 1
  %66 = sext i8 %65 to i32
  %67 = icmp eq i32 %66, 84
  br i1 %67, label %68, label %75

68:                                               ; preds = %58
  %69 = load i32, i32* %7, align 4
  %70 = sext i32 %69 to i64
  %71 = getelementptr inbounds [1000 x [300 x i8]], [1000 x [300 x i8]]* %10, i64 0, i64 %70
  %72 = load i32, i32* %8, align 4
  %73 = sext i32 %72 to i64
  %74 = getelementptr inbounds [300 x i8], [300 x i8]* %71, i64 0, i64 %73
  store i8 65, i8* %74, align 1
  br label %111

75:                                               ; preds = %58
  %76 = load i32, i32* %7, align 4
  %77 = sext i32 %76 to i64
  %78 = getelementptr inbounds [1000 x [300 x i8]], [1000 x [300 x i8]]* %10, i64 0, i64 %77
  %79 = load i32, i32* %8, align 4
  %80 = sext i32 %79 to i64
  %81 = getelementptr inbounds [300 x i8], [300 x i8]* %78, i64 0, i64 %80
  %82 = load i8, i8* %81, align 1
  %83 = sext i8 %82 to i32
  %84 = icmp eq i32 %83, 67
  br i1 %84, label %85, label %92

85:                                               ; preds = %75
  %86 = load i32, i32* %7, align 4
  %87 = sext i32 %86 to i64
  %88 = getelementptr inbounds [1000 x [300 x i8]], [1000 x [300 x i8]]* %10, i64 0, i64 %87
  %89 = load i32, i32* %8, align 4
  %90 = sext i32 %89 to i64
  %91 = getelementptr inbounds [300 x i8], [300 x i8]* %88, i64 0, i64 %90
  store i8 71, i8* %91, align 1
  br label %110

92:                                               ; preds = %75
  %93 = load i32, i32* %7, align 4
  %94 = sext i32 %93 to i64
  %95 = getelementptr inbounds [1000 x [300 x i8]], [1000 x [300 x i8]]* %10, i64 0, i64 %94
  %96 = load i32, i32* %8, align 4
  %97 = sext i32 %96 to i64
  %98 = getelementptr inbounds [300 x i8], [300 x i8]* %95, i64 0, i64 %97
  %99 = load i8, i8* %98, align 1
  %100 = sext i8 %99 to i32
  %101 = icmp eq i32 %100, 71
  br i1 %101, label %102, label %109

102:                                              ; preds = %92
  %103 = load i32, i32* %7, align 4
  %104 = sext i32 %103 to i64
  %105 = getelementptr inbounds [1000 x [300 x i8]], [1000 x [300 x i8]]* %10, i64 0, i64 %104
  %106 = load i32, i32* %8, align 4
  %107 = sext i32 %106 to i64
  %108 = getelementptr inbounds [300 x i8], [300 x i8]* %105, i64 0, i64 %107
  store i8 67, i8* %108, align 1
  br label %109

109:                                              ; preds = %102, %92
  br label %110

110:                                              ; preds = %109, %85
  br label %111

111:                                              ; preds = %110, %68
  br label %112

112:                                              ; preds = %111, %51
  br label %113

113:                                              ; preds = %112
  %114 = load i32, i32* %8, align 4
  %115 = add nsw i32 %114, 1
  store i32 %115, i32* %8, align 4
  br label %37

116:                                              ; preds = %37
  br label %117

117:                                              ; preds = %116
  %118 = load i32, i32* %7, align 4
  %119 = add nsw i32 %118, 1
  store i32 %119, i32* %7, align 4
  br label %26

120:                                              ; preds = %26
  store i32 0, i32* %7, align 4
  br label %121

121:                                              ; preds = %131, %120
  %122 = load i32, i32* %7, align 4
  %123 = load i32, i32* %6, align 4
  %124 = icmp slt i32 %122, %123
  br i1 %124, label %125, label %134

125:                                              ; preds = %121
  %126 = load i32, i32* %7, align 4
  %127 = sext i32 %126 to i64
  %128 = getelementptr inbounds [1000 x [300 x i8]], [1000 x [300 x i8]]* %10, i64 0, i64 %127
  %129 = getelementptr inbounds [300 x i8], [300 x i8]* %128, i64 0, i64 0
  %130 = call i32 (i8*, ...) @printf(i8* getelementptr inbounds ([4 x i8], [4 x i8]* @.str.2, i64 0, i64 0), i8* %129)
  br label %131

131:                                              ; preds = %125
  %132 = load i32, i32* %7, align 4
  %133 = add nsw i32 %132, 1
  store i32 %133, i32* %7, align 4
  br label %121

134:                                              ; preds = %121
  ret i32 0
}

declare dso_local i32 @__isoc99_scanf(i8*, ...) #1

; Function Attrs: nounwind readonly
declare dso_local i64 @strlen(i8*) #2

declare dso_local i32 @printf(i8*, ...) #1


!llvm.module.flags = !{!0}
!llvm.ident = !{!1}

!0 = !{i32 1, !"wchar_size", i32 4}
!1 = !{!"clang version 10.0.0-4ubuntu1 "}
